target datalayout = "e-m:e-p270:32:32-p271:32:32-p272:64:64-i64:64-i128:128-f80:128-n8:16:32:64-S128"
target triple = "x86_64-pc-linux-gnu"

%struct.HuffmanTreeToken = type { i8, i8 }
%struct.HuffmanTreeCode = type { i32, ptr, ptr }

; Function Attrs: nounwind uwtable
define internal ptr @CodeRepeatedValues(i32 noundef %0, ptr noundef %1, i32 noundef %2, i32 noundef %3) #0 {
  %5 = alloca i32, align 4
  %6 = alloca ptr, align 8
  %7 = alloca i32, align 4
  %8 = alloca i32, align 4
  %9 = alloca i32, align 4
  store i32 %0, ptr %5, align 4, !tbaa !7
  store ptr %1, ptr %6, align 8, !tbaa !3
  store i32 %2, ptr %7, align 4, !tbaa !7
  store i32 %3, ptr %8, align 4, !tbaa !7
  %10 = load i32, ptr %7, align 4, !tbaa !7
  %11 = load i32, ptr %8, align 4, !tbaa !7
  %12 = icmp ne i32 %10, %11
  br i1 %12, label %13, label %24

13:                                               ; preds = %4
  %14 = load i32, ptr %7, align 4, !tbaa !7
  %15 = trunc i32 %14 to i8
  %16 = load ptr, ptr %6, align 8, !tbaa !3
  %17 = getelementptr inbounds nuw %struct.HuffmanTreeToken, ptr %16, i32 0, i32 0
  store i8 %15, ptr %17, align 1, !tbaa !18
  %18 = load ptr, ptr %6, align 8, !tbaa !3
  %19 = getelementptr inbounds nuw %struct.HuffmanTreeToken, ptr %18, i32 0, i32 1
  store i8 0, ptr %19, align 1, !tbaa !20
  %20 = load ptr, ptr %6, align 8, !tbaa !3
  %21 = getelementptr inbounds nuw %struct.HuffmanTreeToken, ptr %20, i32 1
  store ptr %21, ptr %6, align 8, !tbaa !3
  %22 = load i32, ptr %5, align 4, !tbaa !7
  %23 = add nsw i32 %22, -1
  store i32 %23, ptr %5, align 4, !tbaa !7
  br label %24

24:                                               ; preds = %13, %4
  br label %25

25:                                               ; preds = %72, %24
  %26 = load i32, ptr %5, align 4, !tbaa !7
  %27 = icmp sge i32 %26, 1
  br i1 %27, label %28, label %73

28:                                               ; preds = %25
  %29 = load i32, ptr %5, align 4, !tbaa !7
  %30 = icmp slt i32 %29, 3
  br i1 %30, label %31, label %49

31:                                               ; preds = %28
  call void @llvm.lifetime.start.p0(i64 4, ptr %9) #6
  store i32 0, ptr %9, align 4, !tbaa !7
  br label %32

32:                                               ; preds = %45, %31
  %33 = load i32, ptr %9, align 4, !tbaa !7
  %34 = load i32, ptr %5, align 4, !tbaa !7
  %35 = icmp slt i32 %33, %34
  br i1 %35, label %36, label %48

36:                                               ; preds = %32
  %37 = load i32, ptr %7, align 4, !tbaa !7
  %38 = trunc i32 %37 to i8
  %39 = load ptr, ptr %6, align 8, !tbaa !3
  %40 = getelementptr inbounds nuw %struct.HuffmanTreeToken, ptr %39, i32 0, i32 0
  store i8 %38, ptr %40, align 1, !tbaa !18
  %41 = load ptr, ptr %6, align 8, !tbaa !3
  %42 = getelementptr inbounds nuw %struct.HuffmanTreeToken, ptr %41, i32 0, i32 1
  store i8 0, ptr %42, align 1, !tbaa !20
  %43 = load ptr, ptr %6, align 8, !tbaa !3
  %44 = getelementptr inbounds nuw %struct.HuffmanTreeToken, ptr %43, i32 1
  store ptr %44, ptr %6, align 8, !tbaa !3
  br label %45

45:                                               ; preds = %36
  %46 = load i32, ptr %9, align 4, !tbaa !7
  %47 = add nsw i32 %46, 1
  store i32 %47, ptr %9, align 4, !tbaa !7
  br label %32, !llvm.loop !23

48:                                               ; preds = %32
  call void @llvm.lifetime.end.p0(i64 4, ptr %9) #6
  br label %73

49:                                               ; preds = %28
  %50 = load i32, ptr %5, align 4, !tbaa !7
  %51 = icmp slt i32 %50, 7
  br i1 %51, label %52, label %62

52:                                               ; preds = %49
  %53 = load ptr, ptr %6, align 8, !tbaa !3
  %54 = getelementptr inbounds nuw %struct.HuffmanTreeToken, ptr %53, i32 0, i32 0
  store i8 16, ptr %54, align 1, !tbaa !18
  %55 = load i32, ptr %5, align 4, !tbaa !7
  %56 = sub nsw i32 %55, 3
  %57 = trunc i32 %56 to i8
  %58 = load ptr, ptr %6, align 8, !tbaa !3
  %59 = getelementptr inbounds nuw %struct.HuffmanTreeToken, ptr %58, i32 0, i32 1
  store i8 %57, ptr %59, align 1, !tbaa !20
  %60 = load ptr, ptr %6, align 8, !tbaa !3
  %61 = getelementptr inbounds nuw %struct.HuffmanTreeToken, ptr %60, i32 1
  store ptr %61, ptr %6, align 8, !tbaa !3
  br label %73

62:                                               ; preds = %49
  %63 = load ptr, ptr %6, align 8, !tbaa !3
  %64 = getelementptr inbounds nuw %struct.HuffmanTreeToken, ptr %63, i32 0, i32 0
  store i8 16, ptr %64, align 1, !tbaa !18
  %65 = load ptr, ptr %6, align 8, !tbaa !3
  %66 = getelementptr inbounds nuw %struct.HuffmanTreeToken, ptr %65, i32 0, i32 1
  store i8 3, ptr %66, align 1, !tbaa !20
  %67 = load ptr, ptr %6, align 8, !tbaa !3
  %68 = getelementptr inbounds nuw %struct.HuffmanTreeToken, ptr %67, i32 1
  store ptr %68, ptr %6, align 8, !tbaa !3
  %69 = load i32, ptr %5, align 4, !tbaa !7
  %70 = sub nsw i32 %69, 6
  store i32 %70, ptr %5, align 4, !tbaa !7
  br label %71

71:                                               ; preds = %62
  br label %72

72:                                               ; preds = %71
  br label %25, !llvm.loop !24

73:                                               ; preds = %52, %48, %25
  %74 = load ptr, ptr %6, align 8, !tbaa !3
  ret ptr %74
}

; Function Attrs: nounwind uwtable
define internal ptr @CodeRepeatedZeros(i32 noundef %0, ptr noundef %1) #0 {
  %3 = alloca i32, align 4
  %4 = alloca ptr, align 8
  %5 = alloca i32, align 4
  store i32 %0, ptr %3, align 4, !tbaa !7
  store ptr %1, ptr %4, align 8, !tbaa !3
  br label %6

6:                                                ; preds = %65, %2
  %7 = load i32, ptr %3, align 4, !tbaa !7
  %8 = icmp sge i32 %7, 1
  br i1 %8, label %9, label %66

9:                                                ; preds = %6
  %10 = load i32, ptr %3, align 4, !tbaa !7
  %11 = icmp slt i32 %10, 3
  br i1 %11, label %12, label %28

12:                                               ; preds = %9
  call void @llvm.lifetime.start.p0(i64 4, ptr %5) #6
  store i32 0, ptr %5, align 4, !tbaa !7
  br label %13

13:                                               ; preds = %24, %12
  %14 = load i32, ptr %5, align 4, !tbaa !7
  %15 = load i32, ptr %3, align 4, !tbaa !7
  %16 = icmp slt i32 %14, %15
  br i1 %16, label %17, label %27

17:                                               ; preds = %13
  %18 = load ptr, ptr %4, align 8, !tbaa !3
  %19 = getelementptr inbounds nuw %struct.HuffmanTreeToken, ptr %18, i32 0, i32 0
  store i8 0, ptr %19, align 1, !tbaa !18
  %20 = load ptr, ptr %4, align 8, !tbaa !3
  %21 = getelementptr inbounds nuw %struct.HuffmanTreeToken, ptr %20, i32 0, i32 1
  store i8 0, ptr %21, align 1, !tbaa !20
  %22 = load ptr, ptr %4, align 8, !tbaa !3
  %23 = getelementptr inbounds nuw %struct.HuffmanTreeToken, ptr %22, i32 1
  store ptr %23, ptr %4, align 8, !tbaa !3
  br label %24

24:                                               ; preds = %17
  %25 = load i32, ptr %5, align 4, !tbaa !7
  %26 = add nsw i32 %25, 1
  store i32 %26, ptr %5, align 4, !tbaa !7
  br label %13, !llvm.loop !21

27:                                               ; preds = %13
  call void @llvm.lifetime.end.p0(i64 4, ptr %5) #6
  br label %66

28:                                               ; preds = %9
  %29 = load i32, ptr %3, align 4, !tbaa !7
  %30 = icmp slt i32 %29, 11
  br i1 %30, label %31, label %41

31:                                               ; preds = %28
  %32 = load ptr, ptr %4, align 8, !tbaa !3
  %33 = getelementptr inbounds nuw %struct.HuffmanTreeToken, ptr %32, i32 0, i32 0
  store i8 17, ptr %33, align 1, !tbaa !18
  %34 = load i32, ptr %3, align 4, !tbaa !7
  %35 = sub nsw i32 %34, 3
  %36 = trunc i32 %35 to i8
  %37 = load ptr, ptr %4, align 8, !tbaa !3
  %38 = getelementptr inbounds nuw %struct.HuffmanTreeToken, ptr %37, i32 0, i32 1
  store i8 %36, ptr %38, align 1, !tbaa !20
  %39 = load ptr, ptr %4, align 8, !tbaa !3
  %40 = getelementptr inbounds nuw %struct.HuffmanTreeToken, ptr %39, i32 1
  store ptr %40, ptr %4, align 8, !tbaa !3
  br label %66

41:                                               ; preds = %28
  %42 = load i32, ptr %3, align 4, !tbaa !7
  %43 = icmp slt i32 %42, 139
  br i1 %43, label %44, label %54

44:                                               ; preds = %41
  %45 = load ptr, ptr %4, align 8, !tbaa !3
  %46 = getelementptr inbounds nuw %struct.HuffmanTreeToken, ptr %45, i32 0, i32 0
  store i8 18, ptr %46, align 1, !tbaa !18
  %47 = load i32, ptr %3, align 4, !tbaa !7
  %48 = sub nsw i32 %47, 11
  %49 = trunc i32 %48 to i8
  %50 = load ptr, ptr %4, align 8, !tbaa !3
  %51 = getelementptr inbounds nuw %struct.HuffmanTreeToken, ptr %50, i32 0, i32 1
  store i8 %49, ptr %51, align 1, !tbaa !20
  %52 = load ptr, ptr %4, align 8, !tbaa !3
  %53 = getelementptr inbounds nuw %struct.HuffmanTreeToken, ptr %52, i32 1
  store ptr %53, ptr %4, align 8, !tbaa !3
  br label %66

54:                                               ; preds = %41
  %55 = load ptr, ptr %4, align 8, !tbaa !3
  %56 = getelementptr inbounds nuw %struct.HuffmanTreeToken, ptr %55, i32 0, i32 0
  store i8 18, ptr %56, align 1, !tbaa !18
  %57 = load ptr, ptr %4, align 8, !tbaa !3
  %58 = getelementptr inbounds nuw %struct.HuffmanTreeToken, ptr %57, i32 0, i32 1
  store i8 127, ptr %58, align 1, !tbaa !20
  %59 = load ptr, ptr %4, align 8, !tbaa !3
  %60 = getelementptr inbounds nuw %struct.HuffmanTreeToken, ptr %59, i32 1
  store ptr %60, ptr %4, align 8, !tbaa !3
  %61 = load i32, ptr %3, align 4, !tbaa !7
  %62 = sub nsw i32 %61, 138
  store i32 %62, ptr %3, align 4, !tbaa !7
  br label %63

63:                                               ; preds = %54
  br label %64

64:                                               ; preds = %63
  br label %65

65:                                               ; preds = %64
  br label %6, !llvm.loop !22

66:                                               ; preds = %44, %31, %27, %6
  %67 = load ptr, ptr %4, align 8, !tbaa !3
  ret ptr %67
}

; Function Attrs: nounwind uwtable
define hidden i32 @VP8LCreateCompressedHuffmanTree(ptr noundef %0, ptr noundef %1, i32 noundef %2) #0 {
  %4 = alloca ptr, align 8
  %5 = alloca ptr, align 8
  %6 = alloca i32, align 4
  %7 = alloca ptr, align 8
  %8 = alloca ptr, align 8
  %9 = alloca i32, align 4
  %10 = alloca i32, align 4
  %11 = alloca i32, align 4
  %12 = alloca i32, align 4
  %13 = alloca i32, align 4
  %14 = alloca i32, align 4
  store ptr %0, ptr %4, align 8, !tbaa !3
  store ptr %1, ptr %5, align 8, !tbaa !3
  store i32 %2, ptr %6, align 4, !tbaa !7
  call void @llvm.lifetime.start.p0(i64 8, ptr %7) #6
  %15 = load ptr, ptr %5, align 8, !tbaa !3
  store ptr %15, ptr %7, align 8, !tbaa !3
  call void @llvm.lifetime.start.p0(i64 8, ptr %8) #6
  %16 = load ptr, ptr %5, align 8, !tbaa !3
  %17 = load i32, ptr %6, align 4, !tbaa !7
  %18 = sext i32 %17 to i64
  %19 = getelementptr inbounds %struct.HuffmanTreeToken, ptr %16, i64 %18
  store ptr %19, ptr %8, align 8, !tbaa !3
  call void @llvm.lifetime.start.p0(i64 4, ptr %9) #6
  %20 = load ptr, ptr %4, align 8, !tbaa !3
  %21 = getelementptr inbounds nuw %struct.HuffmanTreeCode, ptr %20, i32 0, i32 0
  %22 = load i32, ptr %21, align 8, !tbaa !9
  store i32 %22, ptr %9, align 4, !tbaa !7
  call void @llvm.lifetime.start.p0(i64 4, ptr %10) #6
  store i32 8, ptr %10, align 4, !tbaa !7
  call void @llvm.lifetime.start.p0(i64 4, ptr %11) #6
  store i32 0, ptr %11, align 4, !tbaa !7
  br label %23

23:                                               ; preds = %75, %3
  %24 = load i32, ptr %11, align 4, !tbaa !7
  %25 = load i32, ptr %9, align 4, !tbaa !7
  %26 = icmp slt i32 %24, %25
  br i1 %26, label %27, label %79

27:                                               ; preds = %23
  call void @llvm.lifetime.start.p0(i64 4, ptr %12) #6
  %28 = load ptr, ptr %4, align 8, !tbaa !3
  %29 = getelementptr inbounds nuw %struct.HuffmanTreeCode, ptr %28, i32 0, i32 1
  %30 = load ptr, ptr %29, align 8, !tbaa !13
  %31 = load i32, ptr %11, align 4, !tbaa !7
  %32 = sext i32 %31 to i64
  %33 = getelementptr inbounds i8, ptr %30, i64 %32
  %34 = load i8, ptr %33, align 1, !tbaa !14
  %35 = zext i8 %34 to i32
  store i32 %35, ptr %12, align 4, !tbaa !7
  call void @llvm.lifetime.start.p0(i64 4, ptr %13) #6
  %36 = load i32, ptr %11, align 4, !tbaa !7
  %37 = add nsw i32 %36, 1
  store i32 %37, ptr %13, align 4, !tbaa !7
  call void @llvm.lifetime.start.p0(i64 4, ptr %14) #6
  br label %38

38:                                               ; preds = %55, %27
  %39 = load i32, ptr %13, align 4, !tbaa !7
  %40 = load i32, ptr %9, align 4, !tbaa !7
  %41 = icmp slt i32 %39, %40
  br i1 %41, label %42, label %53

42:                                               ; preds = %38
  %43 = load ptr, ptr %4, align 8, !tbaa !3
  %44 = getelementptr inbounds nuw %struct.HuffmanTreeCode, ptr %43, i32 0, i32 1
  %45 = load ptr, ptr %44, align 8, !tbaa !13
  %46 = load i32, ptr %13, align 4, !tbaa !7
  %47 = sext i32 %46 to i64
  %48 = getelementptr inbounds i8, ptr %45, i64 %47
  %49 = load i8, ptr %48, align 1, !tbaa !14
  %50 = zext i8 %49 to i32
  %51 = load i32, ptr %12, align 4, !tbaa !7
  %52 = icmp eq i32 %50, %51
  br label %53

53:                                               ; preds = %42, %38
  %54 = phi i1 [ false, %38 ], [ %52, %42 ]
  br i1 %54, label %55, label %58

55:                                               ; preds = %53
  %56 = load i32, ptr %13, align 4, !tbaa !7
  %57 = add nsw i32 %56, 1
  store i32 %57, ptr %13, align 4, !tbaa !7
  br label %38, !llvm.loop !15

58:                                               ; preds = %53
  %59 = load i32, ptr %13, align 4, !tbaa !7
  %60 = load i32, ptr %11, align 4, !tbaa !7
  %61 = sub nsw i32 %59, %60
  store i32 %61, ptr %14, align 4, !tbaa !7
  %62 = load i32, ptr %12, align 4, !tbaa !7
  %63 = icmp eq i32 %62, 0
  br i1 %63, label %64, label %68

64:                                               ; preds = %58
  %65 = load i32, ptr %14, align 4, !tbaa !7
  %66 = load ptr, ptr %5, align 8, !tbaa !3
  %67 = call ptr @CodeRepeatedZeros(i32 noundef %65, ptr noundef %66)
  store ptr %67, ptr %5, align 8, !tbaa !3
  br label %75

68:                                               ; preds = %58
  %69 = load i32, ptr %14, align 4, !tbaa !7
  %70 = load ptr, ptr %5, align 8, !tbaa !3
  %71 = load i32, ptr %12, align 4, !tbaa !7
  %72 = load i32, ptr %10, align 4, !tbaa !7
  %73 = call ptr @CodeRepeatedValues(i32 noundef %69, ptr noundef %70, i32 noundef %71, i32 noundef %72)
  store ptr %73, ptr %5, align 8, !tbaa !3
  %74 = load i32, ptr %12, align 4, !tbaa !7
  store i32 %74, ptr %10, align 4, !tbaa !7
  br label %75

75:                                               ; preds = %68, %64
  %76 = load i32, ptr %14, align 4, !tbaa !7
  %77 = load i32, ptr %11, align 4, !tbaa !7
  %78 = add nsw i32 %77, %76
  store i32 %78, ptr %11, align 4, !tbaa !7
  call void @llvm.lifetime.end.p0(i64 4, ptr %14) #6
  call void @llvm.lifetime.end.p0(i64 4, ptr %13) #6
  call void @llvm.lifetime.end.p0(i64 4, ptr %12) #6
  br label %23, !llvm.loop !17

79:                                               ; preds = %23
  %80 = load ptr, ptr %5, align 8, !tbaa !3
  %81 = load ptr, ptr %7, align 8, !tbaa !3
  %82 = ptrtoint ptr %80 to i64
  %83 = ptrtoint ptr %81 to i64
  %84 = sub i64 %82, %83
  %85 = sdiv exact i64 %84, 2
  %86 = trunc i64 %85 to i32
  call void @llvm.lifetime.end.p0(i64 4, ptr %11) #6
  call void @llvm.lifetime.end.p0(i64 4, ptr %10) #6
  call void @llvm.lifetime.end.p0(i64 4, ptr %9) #6
  call void @llvm.lifetime.end.p0(i64 8, ptr %8) #6
  call void @llvm.lifetime.end.p0(i64 8, ptr %7) #6
  ret i32 %86
}